target datalayout = "e-m:e-p270:32:32-p271:32:32-p272:64:64-i64:64-i128:128-f80:128-n8:16:32:64-S128"
target triple = "x86_64-pc-linux-gnu"

%"class.Imath_2_5::Vec2.6" = type { float, float }
%"class.cv::ExrDecoder" = type { %"class.cv::BaseImageDecoder", ptr, i32, %"class.Imath_2_5::Box", i8, ptr, ptr, ptr, ptr, %"struct.Imf_2_5::Chromaticities", i32, i8, i8, i8, i8 }
%"class.cv::BaseImageDecoder" = type { ptr, i32, i32, i32, i32, %"class.std::__cxx11::basic_string", %"class.std::__cxx11::basic_string", %"class.cv::Mat", i8, i8, [6 x i8], %"class.cv::ExifReader" }
%"class.std::__cxx11::basic_string" = type { %"struct.std::__cxx11::basic_string<char>::_Alloc_hider", i64, %union.anon }
%"struct.std::__cxx11::basic_string<char>::_Alloc_hider" = type { ptr }
%union.anon = type { i64, [8 x i8] }
%"class.cv::Mat" = type { i32, i32, i32, i32, ptr, ptr, ptr, ptr, ptr, ptr, %"struct.cv::MatSize", %"struct.cv::MatStep" }
%"struct.cv::MatSize" = type { ptr }
%"struct.cv::MatStep" = type { ptr, [2 x i64] }
%"class.cv::ExifReader" = type <{ %"class.std::vector", %"class.std::map", i32, [4 x i8] }>
%"class.std::vector" = type { %"struct.std::_Vector_base" }
%"struct.std::_Vector_base" = type { %"struct.std::_Vector_base<unsigned char, std::allocator<unsigned char>>::_Vector_impl" }
%"struct.std::_Vector_base<unsigned char, std::allocator<unsigned char>>::_Vector_impl" = type { %"struct.std::_Vector_base<unsigned char, std::allocator<unsigned char>>::_Vector_impl_data" }
%"struct.std::_Vector_base<unsigned char, std::allocator<unsigned char>>::_Vector_impl_data" = type { ptr, ptr, ptr }
%"class.std::map" = type { %"class.std::_Rb_tree" }
%"class.std::_Rb_tree" = type { %"struct.std::_Rb_tree<int, std::pair<const int, cv::ExifEntry_t>, std::_Select1st<std::pair<const int, cv::ExifEntry_t>>, std::less<int>>::_Rb_tree_impl" }
%"struct.std::_Rb_tree<int, std::pair<const int, cv::ExifEntry_t>, std::_Select1st<std::pair<const int, cv::ExifEntry_t>>, std::less<int>>::_Rb_tree_impl" = type { %"struct.std::_Rb_tree_key_compare", %"struct.std::_Rb_tree_header" }
%"struct.std::_Rb_tree_key_compare" = type { %"struct.std::less" }
%"struct.std::less" = type { i8 }
%"struct.std::_Rb_tree_header" = type { %"struct.std::_Rb_tree_node_base", i64 }
%"struct.std::_Rb_tree_node_base" = type { i32, ptr, ptr, ptr }
%"class.Imath_2_5::Box" = type { %"class.Imath_2_5::Vec2", %"class.Imath_2_5::Vec2" }
%"class.Imath_2_5::Vec2" = type { i32, i32 }
%"struct.Imf_2_5::Chromaticities" = type { %"class.Imath_2_5::Vec2.6", %"class.Imath_2_5::Vec2.6", %"class.Imath_2_5::Vec2.6", %"class.Imath_2_5::Vec2.6" }

; Function Attrs: mustprogress nounwind uwtable
define hidden void @_ZN2cv10ExrDecoder9UpSampleXEPfii(ptr noundef nonnull align 8 dereferenceable(376) %0, ptr noundef %1, i32 noundef %2, i32 noundef %3) #5 align 2 {
  %5 = alloca ptr, align 8
  %6 = alloca ptr, align 8
  %7 = alloca i32, align 4
  %8 = alloca i32, align 4
  %9 = alloca i32, align 4
  %10 = alloca i32, align 4
  %11 = alloca i32, align 4
  store ptr %0, ptr %5, align 8
  store ptr %1, ptr %6, align 8
  store i32 %2, ptr %7, align 4
  store i32 %3, ptr %8, align 4
  %12 = load ptr, ptr %5, align 8
  %13 = getelementptr inbounds %"class.cv::BaseImageDecoder", ptr %12, i32 0, i32 1
  %14 = load i32, ptr %13, align 8
  %15 = sub nsw i32 %14, 1
  %16 = load i32, ptr %8, align 4
  %17 = sdiv i32 %15, %16
  store i32 %17, ptr %9, align 4
  %18 = getelementptr inbounds %"class.cv::BaseImageDecoder", ptr %12, i32 0, i32 1
  %19 = load i32, ptr %18, align 8
  %20 = load i32, ptr %8, align 4
  %21 = sub nsw i32 %19, %20
  store i32 %21, ptr %10, align 4
  br label %22

22:                                               ; preds = %71, %4
  %23 = load i32, ptr %9, align 4
  %24 = icmp sge i32 %23, 0
  br i1 %24, label %25, label %77

25:                                               ; preds = %22
  store i32 0, ptr %11, align 4
  br label %26

26:                                               ; preds = %67, %25
  %27 = load i32, ptr %11, align 4
  %28 = load i32, ptr %8, align 4
  %29 = icmp slt i32 %27, %28
  br i1 %29, label %30, label %70

30:                                               ; preds = %26
  %31 = getelementptr inbounds %"class.cv::ExrDecoder", ptr %12, i32 0, i32 2
  %32 = load i32, ptr %31, align 8
  %33 = icmp eq i32 %32, 2
  br i1 %33, label %34, label %50

34:                                               ; preds = %30
  %35 = load ptr, ptr %6, align 8
  %36 = load i32, ptr %9, align 4
  %37 = load i32, ptr %7, align 4
  %38 = mul nsw i32 %36, %37
  %39 = sext i32 %38 to i64
  %40 = getelementptr inbounds float, ptr %35, i64 %39
  %41 = load float, ptr %40, align 4
  %42 = load ptr, ptr %6, align 8
  %43 = load i32, ptr %10, align 4
  %44 = load i32, ptr %11, align 4
  %45 = add nsw i32 %43, %44
  %46 = load i32, ptr %7, align 4
  %47 = mul nsw i32 %45, %46
  %48 = sext i32 %47 to i64
  %49 = getelementptr inbounds float, ptr %42, i64 %48
  store float %41, ptr %49, align 4
  br label %66

50:                                               ; preds = %30
  %51 = load ptr, ptr %6, align 8
  %52 = load i32, ptr %9, align 4
  %53 = load i32, ptr %7, align 4
  %54 = mul nsw i32 %52, %53
  %55 = sext i32 %54 to i64
  %56 = getelementptr inbounds i32, ptr %51, i64 %55
  %57 = load i32, ptr %56, align 4
  %58 = load ptr, ptr %6, align 8
  %59 = load i32, ptr %10, align 4
  %60 = load i32, ptr %11, align 4
  %61 = add nsw i32 %59, %60
  %62 = load i32, ptr %7, align 4
  %63 = mul nsw i32 %61, %62
  %64 = sext i32 %63 to i64
  %65 = getelementptr inbounds i32, ptr %58, i64 %64
  store i32 %57, ptr %65, align 4
  br label %66

66:                                               ; preds = %50, %34
  br label %67

67:                                               ; preds = %66
  %68 = load i32, ptr %11, align 4
  %69 = add nsw i32 %68, 1
  store i32 %69, ptr %11, align 4
  br label %26, !llvm.loop !18

70:                                               ; preds = %26
  br label %71

71:                                               ; preds = %70
  %72 = load i32, ptr %9, align 4
  %73 = add nsw i32 %72, -1
  store i32 %73, ptr %9, align 4
  %74 = load i32, ptr %8, align 4
  %75 = load i32, ptr %10, align 4
  %76 = sub nsw i32 %75, %74
  store i32 %76, ptr %10, align 4
  br label %22, !llvm.loop !19

77:                                               ; preds = %22
  ret void
}