; Function Attrs: mustprogress nofree norecurse nosync nounwind memory(argmem: readwrite) uwtable
define hidden void @_ZN2cv10ExrDecoder9UpSampleXEPfii(ptr nocapture noundef nonnull readonly align 8 dereferenceable(376) %0, ptr nocapture noundef %1, i32 noundef %2, i32 noundef %3) local_unnamed_addr #12 align 2 {
  %5 = getelementptr inbounds i8, ptr %0, i64 8
  %6 = load i32, ptr %5, align 8
  %7 = add nsw i32 %6, -1
  %8 = sdiv i32 %7, %3
  %9 = icmp sgt i32 %8, -1
  br i1 %9, label %.preheader.lr.ph, label %._crit_edge30

.preheader.lr.ph:                                 ; preds = %4
  %10 = icmp sgt i32 %3, 0
  %11 = getelementptr inbounds i8, ptr %0, i64 280
  br i1 %10, label %.preheader.us.preheader, label %._crit_edge30

.preheader.us.preheader:                          ; preds = %.preheader.lr.ph
  %12 = zext nneg i32 %8 to i64
  %13 = sext i32 %2 to i64
  %wide.trip.count = zext nneg i32 %3 to i64
  br label %.preheader.us

.preheader.us:                                    ; preds = %.preheader.us.preheader, %._crit_edge.us
  %indvars.iv33 = phi i64 [ %12, %.preheader.us.preheader ], [ %indvars.iv.next34, %._crit_edge.us ]
  %.02329.us.pn = phi i32 [ %6, %.preheader.us.preheader ], [ %.02329.us, %._crit_edge.us ]
  %.02329.us = sub nsw i32 %.02329.us.pn, %3
  %14 = mul nsw i64 %indvars.iv33, %13
  %15 = getelementptr inbounds i32, ptr %1, i64 %14
  br label %16

16:                                               ; preds = %.preheader.us, %29
  %indvars.iv = phi i64 [ 0, %.preheader.us ], [ %indvars.iv.next, %29 ]
  %17 = load i32, ptr %11, align 8
  %18 = icmp eq i32 %17, 2
  %19 = trunc nuw nsw i64 %indvars.iv to i32
  %20 = add nsw i32 %.02329.us, %19
  %21 = mul nsw i32 %20, %2
  %22 = sext i32 %21 to i64
  br i1 %18, label %26, label %23

23:                                               ; preds = %16
  %24 = load i32, ptr %15, align 4
  %25 = getelementptr inbounds i32, ptr %1, i64 %22
  store i32 %24, ptr %25, align 4
  br label %29

26:                                               ; preds = %16
  %27 = load float, ptr %15, align 4
  %28 = getelementptr inbounds float, ptr %1, i64 %22
  store float %27, ptr %28, align 4
  br label %29

29:                                               ; preds = %26, %23
  %indvars.iv.next = add nuw nsw i64 %indvars.iv, 1
  %exitcond.not = icmp eq i64 %indvars.iv.next, %wide.trip.count
  br i1 %exitcond.not, label %._crit_edge.us, label %16, !llvm.loop !10

._crit_edge.us:                                   ; preds = %29
  %indvars.iv.next34 = add nsw i64 %indvars.iv33, -1
  %30 = icmp sgt i64 %indvars.iv33, 0
  br i1 %30, label %.preheader.us, label %._crit_edge30, !llvm.loop !11

._crit_edge30:                                    ; preds = %._crit_edge.us, %.preheader.lr.ph, %4
  ret void
}